; Function Attrs: mustprogress uwtable
define void @_ZN6icu_7515RBBIDataWrapperC2EPKNS_14RBBIDataHeaderER10UErrorCode(ptr noundef nonnull align 8 dereferenceable(137) %this, ptr noundef %data, ptr noundef nonnull align 4 dereferenceable(4) %status) unnamed_addr #0 align 2 personality ptr @__gxx_personality_v0 {
entry:
  %fRuleString = getelementptr inbounds i8, ptr %this, i64 72
  store ptr getelementptr inbounds ({ [13 x ptr] }, ptr @_ZTVN6icu_7513UnicodeStringE, i64 0, i32 0, i64 2), ptr %fRuleString, align 8
  %fUnion2.i = getelementptr inbounds i8, ptr %this, i64 80
  store i16 2, ptr %fUnion2.i, align 8
  %fTrie.i = getelementptr inbounds i8, ptr %this, i64 48
  store ptr null, ptr %fTrie.i, align 8
  %fUDataMem.i = getelementptr inbounds i8, ptr %this, i64 64
  store ptr null, ptr %fUDataMem.i, align 8
  %fRefCount.i = getelementptr inbounds i8, ptr %this, i64 56
  tail call void @llvm.memset.p0.i64(ptr noundef nonnull align 8 dereferenceable(40) %this, i8 0, i64 40, i1 false)
  store atomic i32 0, ptr %fRefCount.i seq_cst, align 8
  %fDontFreeData.i = getelementptr inbounds i8, ptr %this, i64 136
  store i8 1, ptr %fDontFreeData.i, align 8
  invoke void @_ZN6icu_7515RBBIDataWrapper4initEPKNS_14RBBIDataHeaderER10UErrorCode(ptr noundef nonnull align 8 dereferenceable(137) %this, ptr noundef %data, ptr noundef nonnull align 4 dereferenceable(4) %status)
          to label %invoke.cont2 unwind label %lpad

invoke.cont2:                                     ; preds = %entry
  ret void

lpad:                                             ; preds = %entry
  %0 = landingpad { ptr, i32 }
          cleanup
  tail call void @_ZN6icu_7513UnicodeStringD1Ev(ptr noundef nonnull align 8 dereferenceable(64) %fRuleString) #13
  resume { ptr, i32 } %0
}